; ModuleID = '42/1437.cpp'
source_filename = "42/1437.cpp"
target datalayout = "e-m:e-p270:32:32-p271:32:32-p272:64:64-i64:64-f80:128-n8:16:32:64-S128"
target triple = "x86_64-pc-linux-gnu"

%"class.std::ios_base::Init" = type { i8 }
%"class.std::basic_istream" = type { i32 (...)**, i64, %"class.std::basic_ios" }
%"class.std::basic_ios" = type { %"class.std::ios_base", %"class.std::basic_ostream"*, i8, i8, %"class.std::basic_streambuf"*, %"class.std::ctype"*, %"class.std::num_put"*, %"class.std::num_get"* }
%"class.std::ios_base" = type { i32 (...)**, i64, i64, i32, i32, i32, %"struct.std::ios_base::_Callback_list"*, %"struct.std::ios_base::_Words", [8 x %"struct.std::ios_base::_Words"], i32, %"struct.std::ios_base::_Words"*, %"class.std::locale" }
%"struct.std::ios_base::_Callback_list" = type { %"struct.std::ios_base::_Callback_list"*, void (i32, %"class.std::ios_base"*, i32)*, i32, i32 }
%"struct.std::ios_base::_Words" = type { i8*, i64 }
%"class.std::locale" = type { %"class.std::locale::_Impl"* }
%"class.std::locale::_Impl" = type { i32, %"class.std::locale::facet"**, i64, %"class.std::locale::facet"**, i8** }
%"class.std::locale::facet" = type <{ i32 (...)**, i32, [4 x i8] }>
%"class.std::basic_ostream" = type { i32 (...)**, %"class.std::basic_ios" }
%"class.std::basic_streambuf" = type { i32 (...)**, i8*, i8*, i8*, i8*, i8*, i8*, %"class.std::locale" }
%"class.std::ctype" = type <{ %"class.std::locale::facet.base", [4 x i8], %struct.__locale_struct*, i8, [7 x i8], i32*, i32*, i16*, i8, [256 x i8], [256 x i8], i8, [6 x i8] }>
%"class.std::locale::facet.base" = type <{ i32 (...)**, i32 }>
%struct.__locale_struct = type { [13 x %struct.__locale_data*], i16*, i32*, i32*, [13 x i8*] }
%struct.__locale_data = type opaque
%"class.std::num_put" = type { %"class.std::locale::facet.base", [4 x i8] }
%"class.std::num_get" = type { %"class.std::locale::facet.base", [4 x i8] }

@_ZStL8__ioinit = internal global %"class.std::ios_base::Init" zeroinitializer, align 1
@__dso_handle = external hidden global i8
@_ZSt3cin = external dso_local global %"class.std::basic_istream", align 8
@_ZSt4cout = external dso_local global %"class.std::basic_ostream", align 8
@llvm.global_ctors = appending global [1 x { i32, void ()*, i8* }] [{ i32, void ()*, i8* } { i32 65535, void ()* @_GLOBAL__sub_I_1437.cpp, i8* null }]

; Function Attrs: noinline uwtable
define internal void @__cxx_global_var_init() #0 section ".text.startup" {
  call void @_ZNSt8ios_base4InitC1Ev(%"class.std::ios_base::Init"* @_ZStL8__ioinit)
  %1 = call i32 @__cxa_atexit(void (i8*)* bitcast (void (%"class.std::ios_base::Init"*)* @_ZNSt8ios_base4InitD1Ev to void (i8*)*), i8* getelementptr inbounds (%"class.std::ios_base::Init", %"class.std::ios_base::Init"* @_ZStL8__ioinit, i32 0, i32 0), i8* @__dso_handle) #3
  ret void
}

declare dso_local void @_ZNSt8ios_base4InitC1Ev(%"class.std::ios_base::Init"*) unnamed_addr #1

; Function Attrs: nounwind
declare dso_local void @_ZNSt8ios_base4InitD1Ev(%"class.std::ios_base::Init"*) unnamed_addr #2

; Function Attrs: nounwind
declare dso_local i32 @__cxa_atexit(void (i8*)*, i8*, i8*) #3

; Function Attrs: noinline norecurse uwtable
define dso_local i32 @main() #4 {
  %1 = alloca i32, align 4
  %2 = alloca [100000 x i32], align 16
  %3 = alloca i32, align 4
  %4 = alloca i32, align 4
  %5 = alloca i32, align 4
  %6 = alloca i32, align 4
  store i32 0, i32* %1, align 4
  store i32 0, i32* %6, align 4
  %7 = call dereferenceable(280) %"class.std::basic_istream"* @_ZNSirsERi(%"class.std::basic_istream"* @_ZSt3cin, i32* dereferenceable(4) %4)
  br label %8

8:                                                ; preds = %12, %0
  %9 = load i32, i32* %6, align 4
  %10 = load i32, i32* %4, align 4
  %11 = icmp slt i32 %9, %10
  br i1 %11, label %12, label %19

12:                                               ; preds = %8
  %13 = load i32, i32* %6, align 4
  %14 = sext i32 %13 to i64
  %15 = getelementptr inbounds [100000 x i32], [100000 x i32]* %2, i64 0, i64 %14
  %16 = call dereferenceable(280) %"class.std::basic_istream"* @_ZNSirsERi(%"class.std::basic_istream"* @_ZSt3cin, i32* dereferenceable(4) %15)
  %17 = load i32, i32* %6, align 4
  %18 = add nsw i32 %17, 1
  store i32 %18, i32* %6, align 4
  br label %8

19:                                               ; preds = %8
  %20 = call dereferenceable(280) %"class.std::basic_istream"* @_ZNSirsERi(%"class.std::basic_istream"* @_ZSt3cin, i32* dereferenceable(4) %3)
  store i32 0, i32* %6, align 4
  br label %21

21:                                               ; preds = %62, %19
  %22 = load i32, i32* %6, align 4
  %23 = load i32, i32* %4, align 4
  %24 = icmp slt i32 %22, %23
  br i1 %24, label %25, label %63

25:                                               ; preds = %21
  %26 = load i32, i32* %6, align 4
  %27 = sext i32 %26 to i64
  %28 = getelementptr inbounds [100000 x i32], [100000 x i32]* %2, i64 0, i64 %27
  %29 = load i32, i32* %28, align 4
  %30 = load i32, i32* %3, align 4
  %31 = icmp eq i32 %29, %30
  br i1 %31, label %32, label %59

32:                                               ; preds = %25
  %33 = load i32, i32* %6, align 4
  %34 = load i32, i32* %4, align 4
  %35 = sub nsw i32 %34, 1
  %36 = icmp slt i32 %33, %35
  br i1 %36, label %37, label %56

37:                                               ; preds = %32
  %38 = load i32, i32* %6, align 4
  store i32 %38, i32* %5, align 4
  br label %39

39:                                               ; preds = %44, %37
  %40 = load i32, i32* %5, align 4
  %41 = load i32, i32* %4, align 4
  %42 = sub nsw i32 %41, 1
  %43 = icmp slt i32 %40, %42
  br i1 %43, label %44, label %55

44:                                               ; preds = %39
  %45 = load i32, i32* %5, align 4
  %46 = add nsw i32 %45, 1
  %47 = sext i32 %46 to i64
  %48 = getelementptr inbounds [100000 x i32], [100000 x i32]* %2, i64 0, i64 %47
  %49 = load i32, i32* %48, align 4
  %50 = load i32, i32* %5, align 4
  %51 = sext i32 %50 to i64
  %52 = getelementptr inbounds [100000 x i32], [100000 x i32]* %2, i64 0, i64 %51
  store i32 %49, i32* %52, align 4
  %53 = load i32, i32* %5, align 4
  %54 = add nsw i32 %53, 1
  store i32 %54, i32* %5, align 4
  br label %39

55:                                               ; preds = %39
  br label %56

56:                                               ; preds = %55, %32
  %57 = load i32, i32* %4, align 4
  %58 = add nsw i32 %57, -1
  store i32 %58, i32* %4, align 4
  br label %62

59:                                               ; preds = %25
  %60 = load i32, i32* %6, align 4
  %61 = add nsw i32 %60, 1
  store i32 %61, i32* %6, align 4
  br label %62

62:                                               ; preds = %59, %56
  br label %21

63:                                               ; preds = %21
  store i32 0, i32* %5, align 4
  br label %64

64:                                               ; preds = %81, %63
  %65 = load i32, i32* %5, align 4
  %66 = load i32, i32* %4, align 4
  %67 = icmp slt i32 %65, %66
  br i1 %67, label %68, label %84

68:                                               ; preds = %64
  %69 = load i32, i32* %5, align 4
  %70 = sext i32 %69 to i64
  %71 = getelementptr inbounds [100000 x i32], [100000 x i32]* %2, i64 0, i64 %70
  %72 = load i32, i32* %71, align 4
  %73 = call dereferenceable(272) %"class.std::basic_ostream"* @_ZNSolsEi(%"class.std::basic_ostream"* @_ZSt4cout, i32 %72)
  %74 = load i32, i32* %5, align 4
  %75 = load i32, i32* %4, align 4
  %76 = sub nsw i32 %75, 1
  %77 = icmp slt i32 %74, %76
  br i1 %77, label %78, label %80

78:                                               ; preds = %68
  %79 = call dereferenceable(272) %"class.std::basic_ostream"* @_ZStlsISt11char_traitsIcEERSt13basic_ostreamIcT_ES5_c(%"class.std::basic_ostream"* dereferenceable(272) @_ZSt4cout, i8 signext 32)
  br label %80

80:                                               ; preds = %78, %68
  br label %81

81:                                               ; preds = %80
  %82 = load i32, i32* %5, align 4
  %83 = add nsw i32 %82, 1
  store i32 %83, i32* %5, align 4
  br label %64

84:                                               ; preds = %64
  %85 = call dereferenceable(272) %"class.std::basic_ostream"* @_ZNSolsEPFRSoS_E(%"class.std::basic_ostream"* @_ZSt4cout, %"class.std::basic_ostream"* (%"class.std::basic_ostream"*)* @_ZSt4endlIcSt11char_traitsIcEERSt13basic_ostreamIT_T0_ES6_)
  ret i32 0
}

declare dso_local dereferenceable(280) %"class.std::basic_istream"* @_ZNSirsERi(%"class.std::basic_istream"*, i32* dereferenceable(4)) #1

declare dso_local dereferenceable(272) %"class.std::basic_ostream"* @_ZNSolsEi(%"class.std::basic_ostream"*, i32) #1

declare dso_local dereferenceable(272) %"class.std::basic_ostream"* @_ZStlsISt11char_traitsIcEERSt13basic_ostreamIcT_ES5_c(%"class.std::basic_ostream"* dereferenceable(272), i8 signext) #1

declare dso_local dereferenceable(272) %"class.std::basic_ostream"* @_ZNSolsEPFRSoS_E(%"class.std::basic_ostream"*, %"class.std::basic_ostream"* (%"class.std::basic_ostream"*)*) #1

declare dso_local dereferenceable(272) %"class.std::basic_ostream"* @_ZSt4endlIcSt11char_traitsIcEERSt13basic_ostreamIT_T0_ES6_(%"class.std::basic_ostream"* dereferenceable(272)) #1

; Function Attrs: noinline uwtable
define internal void @_GLOBAL__sub_I_1437.cpp() #0 section ".text.startup" {
  call void @__cxx_global_var_init()
  ret void
}


!llvm.module.flags = !{!0}
!llvm.ident = !{!1}

!0 = !{i32 1, !"wchar_size", i32 4}
!1 = !{!"clang version 10.0.0-4ubuntu1 "}
